; Function Attrs: mustprogress nofree norecurse nosync nounwind willreturn memory(readwrite, inaccessiblemem: none) uwtable
define dso_local void @_ZN30btKinematicCharacterController4jumpERK9btVector3(ptr nocapture noundef nonnull align 8 dereferenceable(319) %this, ptr nocapture noundef nonnull readonly align 4 dereferenceable(16) %v) unnamed_addr #16 align 2 {
entry:
  %0 = load float, ptr %v, align 4
  %arrayidx5.i.i = getelementptr inbounds i8, ptr %v, i64 4
  %1 = load float, ptr %arrayidx5.i.i, align 4
  %mul8.i.i = fmul float %1, %1
  %2 = tail call float @llvm.fmuladd.f32(float %0, float %0, float %mul8.i.i)
  %arrayidx10.i.i = getelementptr inbounds i8, ptr %v, i64 8
  %3 = load float, ptr %arrayidx10.i.i, align 4
  %4 = tail call noundef float @llvm.fmuladd.f32(float %3, float %3, float %2)
  %cmp = fcmp oeq float %4, 0.000000e+00
  %m_SetjumpSpeed = getelementptr inbounds i8, ptr %this, i64 52
  %5 = load float, ptr %m_SetjumpSpeed, align 4
  %sqrt.i = tail call float @llvm.sqrt.f32(float %4)
  %cond = select i1 %cmp, float %5, float %sqrt.i
  %m_jumpSpeed = getelementptr inbounds i8, ptr %this, i64 48
  store float %cond, ptr %m_jumpSpeed, align 8
  %m_verticalVelocity = getelementptr inbounds i8, ptr %this, i64 36
  store float %cond, ptr %m_verticalVelocity, align 4
  %m_wasJumping = getelementptr inbounds i8, ptr %this, i64 277
  store i8 1, ptr %m_wasJumping, align 1
  %6 = load float, ptr %v, align 4
  %7 = load float, ptr %arrayidx5.i.i, align 4
  %mul8.i.i7 = fmul float %7, %7
  %8 = tail call float @llvm.fmuladd.f32(float %6, float %6, float %mul8.i.i7)
  %9 = load float, ptr %arrayidx10.i.i, align 4
  %10 = tail call noundef float @llvm.fmuladd.f32(float %9, float %9, float %8)
  %cmp5 = fcmp oeq float %10, 0.000000e+00
  br i1 %cmp5, label %cond.true6, label %cond.false7

cond.true6:                                       ; preds = %entry
  %m_up = getelementptr inbounds i8, ptr %this, i64 284
  %ref.tmp.sroa.0.0.copyload = load <2 x float>, ptr %m_up, align 4
  %ref.tmp.sroa.3.0.m_up.sroa_idx = getelementptr inbounds i8, ptr %this, i64 292
  %ref.tmp.sroa.3.0.copyload = load <2 x float>, ptr %ref.tmp.sroa.3.0.m_up.sroa_idx, align 4
  br label %cond.end9

cond.false7:                                      ; preds = %entry
  %nrm.sroa.0.0.copyload.i = load <2 x float>, ptr %v, align 4
  %nrm.sroa.6.0.copyload.i = load <2 x float>, ptr %arrayidx10.i.i, align 4
  %11 = fmul <2 x float> %nrm.sroa.0.0.copyload.i, %nrm.sroa.0.0.copyload.i
  %mul8.i.i.i.i.i = extractelement <2 x float> %11, i64 1
  %12 = extractelement <2 x float> %nrm.sroa.0.0.copyload.i, i64 0
  %13 = tail call float @llvm.fmuladd.f32(float %12, float %12, float %mul8.i.i.i.i.i)
  %nrm.sroa.6.8.vec.extract.i = extractelement <2 x float> %nrm.sroa.6.0.copyload.i, i64 0
  %14 = tail call noundef float @llvm.fmuladd.f32(float %nrm.sroa.6.8.vec.extract.i, float %nrm.sroa.6.8.vec.extract.i, float %13)
  %sqrt.i.i.i = tail call noundef float @llvm.sqrt.f32(float %14)
  %div.i.i.i = fdiv float 1.000000e+00, %sqrt.i.i.i
  %15 = insertelement <2 x float> poison, float %div.i.i.i, i64 0
  %16 = shufflevector <2 x float> %15, <2 x float> poison, <2 x i32> zeroinitializer
  %17 = fmul <2 x float> %nrm.sroa.0.0.copyload.i, %16
  %mul7.i.i.i.i = fmul float %nrm.sroa.6.8.vec.extract.i, %div.i.i.i
  %nrm.sroa.6.8.vec.insert.i = insertelement <2 x float> %nrm.sroa.6.0.copyload.i, float %mul7.i.i.i.i, i64 0
  br label %cond.end9

cond.end9:                                        ; preds = %cond.false7, %cond.true6
  %ref.tmp.sroa.3.0 = phi <2 x float> [ %ref.tmp.sroa.3.0.copyload, %cond.true6 ], [ %nrm.sroa.6.8.vec.insert.i, %cond.false7 ]
  %ref.tmp.sroa.0.0 = phi <2 x float> [ %ref.tmp.sroa.0.0.copyload, %cond.true6 ], [ %17, %cond.false7 ]
  %m_jumpAxis = getelementptr inbounds i8, ptr %this, i64 300
  store <2 x float> %ref.tmp.sroa.0.0, ptr %m_jumpAxis, align 4
  %ref.tmp.sroa.3.0.m_jumpAxis.sroa_idx = getelementptr inbounds i8, ptr %this, i64 308
  store <2 x float> %ref.tmp.sroa.3.0, ptr %ref.tmp.sroa.3.0.m_jumpAxis.sroa_idx, align 4
  %m_ghostObject = getelementptr inbounds i8, ptr %this, i64 16
  %18 = load ptr, ptr %m_ghostObject, align 8
  %m_origin.i = getelementptr inbounds i8, ptr %18, i64 56
  %m_jumpPosition = getelementptr inbounds i8, ptr %this, i64 132
  tail call void @llvm.memcpy.p0.p0.i64(ptr noundef nonnull align 4 dereferenceable(16) %m_jumpPosition, ptr noundef nonnull align 4 dereferenceable(16) %m_origin.i, i64 16, i1 false)
  ret void
}